; ModuleID = 'bench/openusd/original/diag.c.ll'
source_filename = "bench/openusd/original/diag.c.ll"
target datalayout = "e-m:e-p270:32:32-p271:32:32-p272:64:64-i64:64-i128:128-f80:128-n8:16:32:64-S128"
target triple = "x86_64-pc-linux-gnu"

%struct.__va_list_tag = type { i32, i32, ptr, ptr }

; Function Attrs: mustprogress nofree norecurse nosync nounwind willreturn memory(argmem: write) uwtable
define hidden void @avifDiagnosticsClearError(ptr noundef writeonly captures(none) initializes((0, 1)) %0) local_unnamed_addr #0 {
  store i8 0, ptr %0, align 1
  ret void
}

; Function Attrs: nofree nounwind uwtable
define hidden void @avifDiagnosticsPrintf(ptr noundef %0, ptr noundef readonly captures(none) %1, ...) local_unnamed_addr #1 {
  %3 = alloca [1 x %struct.__va_list_tag], align 16
  %.not = icmp eq ptr %0, null
  br i1 %.not, label %9, label %4

4:                                                ; preds = %2
  %5 = load i8, ptr %0, align 1
  %.not5 = icmp eq i8 %5, 0
  br i1 %.not5, label %6, label %9

6:                                                ; preds = %4
  call void @llvm.va_start.p0(ptr nonnull %3)
  %7 = call i32 @vsnprintf(ptr noundef nonnull %0, i64 noundef 256, ptr noundef %1, ptr noundef nonnull %3) #4
  %8 = getelementptr inbounds nuw i8, ptr %0, i64 255
  store i8 0, ptr %8, align 1
  call void @llvm.va_end.p0(ptr nonnull %3)
  br label %9

9:                                                ; preds = %4, %2, %6
  ret void
}

; Function Attrs: mustprogress nocallback nofree nosync nounwind willreturn
declare void @llvm.va_start.p0(ptr) #2

; Function Attrs: nofree nounwind
declare noundef i32 @vsnprintf(ptr noundef captures(none), i64 noundef, ptr noundef readonly captures(none), ptr noundef) local_unnamed_addr #3

; Function Attrs: mustprogress nocallback nofree nosync nounwind willreturn
declare void @llvm.va_end.p0(ptr) #2


!llvm.module.flags = !{!0, !1, !2, !3}

!0 = !{i32 1, !"wchar_size", i32 4}
!1 = !{i32 8, !"PIC Level", i32 2}
!2 = !{i32 7, !"uwtable", i32 2}
!3 = !{i32 7, !"frame-pointer", i32 2}
